Certificate:
    Data:
        Version: 3 (0x2)
        Serial Number:
            09:36:24:e2:df:54:24:e4:d3:61:71:82:1c:61:a6:37
        Signature Algorithm: sha256WithRSAEncryption
        Issuer: CN=arsenal
        Validity
            Not Before: Jan 10 10:01:08 2024 GMT
            Not After : Apr 14 10:01:08 2026 GMT
        Subject: CN=OlegVons
        Subject Public Key Info:
            Public Key Algorithm: rsaEncryption
                Public-Key: (2048 bit)
                Modulus:
                    00:b3:da:78:82:24:fe:6f:d4:c2:27:89:72:82:c1:
                    0d:cf:85:b6:ac:24:7a:23:e2:17:8b:9a:f6:c9:31:
                    0d:53:e7:ae:0c:6f:54:0d:f0:0f:43:59:aa:af:8c:
                    56:bc:e2:39:5a:2e:5a:b0:f5:51:b7:1f:e4:71:7d:
                    21:e0:b1:9e:1d:8e:83:a9:6f:f9:a5:5f:6b:98:bd:
                    f6:f4:98:bc:c8:c4:9c:fe:10:86:95:a0:be:66:90:
                    70:c5:34:41:82:80:fd:e6:a7:2a:5a:b2:23:38:a3:
                    f8:9b:b1:62:81:80:e0:b2:1f:b5:54:b5:96:b0:20:
                    7a:bd:a0:15:f6:c2:e7:25:68:a7:63:26:b6:d1:e3:
                    8e:0f:73:fd:86:4a:2c:f5:85:6f:52:4d:a6:84:55:
                    f3:ab:ee:ef:af:8e:39:a7:7d:a0:3b:5f:ef:c1:e4:
                    18:8b:d2:23:82:0d:88:00:8b:79:96:3d:ed:f9:9b:
                    c4:de:91:ed:c0:e6:c6:44:19:fc:3c:22:43:90:16:
                    1f:5d:cb:07:35:a0:68:c9:91:2d:59:a8:9e:02:9c:
                    9d:28:11:fd:86:dd:3c:5b:8b:9c:9b:62:c2:d0:af:
                    e1:2c:f7:2f:0d:4c:a8:f6:09:5e:9f:19:e2:13:7a:
                    99:66:c6:34:b5:e4:af:3e:8a:07:28:36:4d:2c:bf:
                    62:35
                Exponent: 65537 (0x10001)
        X509v3 extensions:
            X509v3 Basic Constraints: 
                CA:FALSE
            X509v3 Subject Key Identifier: 
                A0:1C:2B:34:DE:6A:79:BA:60:9E:F7:90:3D:A8:C0:F4:34:8A:E8:01
            X509v3 Authority Key Identifier: 
                keyid:DE:CB:83:A7:0F:E0:BD:04:B2:2D:5F:D6:A1:47:2D:AF:B7:DD:DB:58
                DirName:/CN=arsenal
                serial:2A:88:FF:FD:16:04:E4:5E:36:71:2A:0B:67:99:CD:CF:8E:36:5E:07
            X509v3 Extended Key Usage: 
                TLS Web Client Authentication
            X509v3 Key Usage: 
                Digital Signature
    Signature Algorithm: sha256WithRSAEncryption
    Signature Value:
        10:58:c9:89:2b:09:18:6a:76:d6:96:04:92:b1:43:dc:b0:42:
        d7:d4:fa:e9:b3:b8:42:09:01:44:1e:7a:f9:34:f9:2c:9d:58:
        ec:19:ac:64:58:6b:f5:c9:96:b9:a4:29:a4:09:7f:0c:3c:46:
        92:86:b1:86:de:c6:36:ae:1f:81:fd:a7:33:9e:51:c4:d3:fc:
        54:63:a9:d4:a1:c8:db:7b:d6:6f:b9:d1:9e:d9:e8:42:65:6d:
        06:6e:aa:62:4c:ff:ef:8d:ce:32:c3:f3:bd:43:29:00:17:e0:
        5d:cb:4c:60:7d:56:4a:19:4d:29:6a:1f:ff:eb:41:80:e0:d3:
        2a:70:dd:df:cf:c6:9f:3b:2e:93:f1:7d:a9:78:c3:77:08:f6:
        72:30:34:7d:79:1a:8c:62:85:b1:42:c6:9e:2c:a8:0e:9b:90:
        11:49:39:77:f4:32:fe:52:4c:30:99:f8:3a:da:40:b2:1e:7e:
        19:1d:1f:10:d5:88:55:e4:6a:3e:7a:52:cf:0c:29:9e:da:c7:
        d1:e1:d3:d0:2d:b8:5f:c5:51:e4:59:92:25:b8:33:d6:0f:47:
        29:16:34:8e:cb:4d:31:e1:c0:84:4a:b9:73:18:04:c7:02:38:
        85:ed:9f:6a:04:26:8c:c2:8f:05:c0:76:60:71:1e:96:65:a1:
        67:c9:4c:2c
-----BEGIN CERTIFICATE-----
MIIDTjCCAjagAwIBAgIQCTYk4t9UJOTTYXGCHGGmNzANBgkqhkiG9w0BAQsFADAS
MRAwDgYDVQQDDAdhcnNlbmFsMB4XDTI0MDExMDEwMDEwOFoXDTI2MDQxNDEwMDEw
OFowEzERMA8GA1UEAwwIT2xlZ1ZvbnMwggEiMA0GCSqGSIb3DQEBAQUAA4IBDwAw
ggEKAoIBAQCz2niCJP5v1MIniXKCwQ3PhbasJHoj4heLmvbJMQ1T564Mb1QN8A9D
WaqvjFa84jlaLlqw9VG3H+RxfSHgsZ4djoOpb/mlX2uYvfb0mLzIxJz+EIaVoL5m
kHDFNEGCgP3mpypasiM4o/ibsWKBgOCyH7VUtZawIHq9oBX2wuclaKdjJrbR444P
c/2GSiz1hW9STaaEVfOr7u+vjjmnfaA7X+/B5BiL0iOCDYgAi3mWPe35m8Teke3A
5sZEGfw8IkOQFh9dywc1oGjJkS1ZqJ4CnJ0oEf2G3Txbi5ybYsLQr+Es9y8NTKj2
CV6fGeITeplmxjS15K8+igcoNk0sv2I1AgMBAAGjgZ4wgZswCQYDVR0TBAIwADAd
BgNVHQ4EFgQUoBwrNN5qebpgnveQPajA9DSK6AEwTQYDVR0jBEYwRIAU3suDpw/g
vQSyLV/WoUctr7fd21ihFqQUMBIxEDAOBgNVBAMMB2Fyc2VuYWyCFCqI//0WBORe
NnEqC2eZzc+ONl4HMBMGA1UdJQQMMAoGCCsGAQUFBwMCMAsGA1UdDwQEAwIHgDAN
BgkqhkiG9w0BAQsFAAOCAQEAEFjJiSsJGGp21pYEkrFD3LBC19T66bO4QgkBRB56
+TT5LJ1Y7BmsZFhr9cmWuaQppAl/DDxGkoaxht7GNq4fgf2nM55RxNP8VGOp1KHI
23vWb7nRntnoQmVtBm6qYkz/743OMsPzvUMpABfgXctMYH1WShlNKWof/+tBgODT
KnDd38/Gnzsuk/F9qXjDdwj2cjA0fXkajGKFsULGniyoDpuQEUk5d/Qy/lJMMJn4
OtpAsh5+GR0fENWIVeRqPnpSzwwpntrH0eHT0C24X8VR5FmSJbgz1g9HKRY0jstN
MeHAhEq5cxgExwI4he2fagQmjMKPBcB2YHEelmWhZ8lMLA==
-----END CERTIFICATE-----
